; Function Attrs: nounwind uwtable
define internal void @known_common(ptr noundef readonly captures(none) %0, ptr noundef %1) #0 {
  %3 = load i32, ptr %1, align 8
  %4 = and i32 %3, 256
  %.not = icmp eq i32 %4, 0
  br i1 %.not, label %5, label %21

5:                                                ; preds = %2
  %6 = getelementptr inbounds nuw i8, ptr %0, i64 40
  %7 = load ptr, ptr %6, align 8, !tbaa !13
  %8 = and i32 %3, 128
  %.not.i = icmp eq i32 %8, 0
  br i1 %.not.i, label %9, label %rev_list_push.exit

9:                                                ; preds = %5
  %10 = or disjoint i32 %3, 384
  store i32 %10, ptr %1, align 8
  %11 = load ptr, ptr @the_repository, align 8, !tbaa !20
  %12 = tail call i32 @repo_parse_commit_gently(ptr noundef %11, ptr noundef nonnull %1, i32 noundef 0) #5
  %.not8.i = icmp eq i32 %12, 0
  br i1 %.not8.i, label %13, label %rev_list_push.exit

13:                                               ; preds = %9
  tail call void @prio_queue_put(ptr noundef %7, ptr noundef nonnull %1) #5
  %14 = load i32, ptr %1, align 8
  %15 = and i32 %14, 64
  %.not9.i = icmp eq i32 %15, 0
  br i1 %.not9.i, label %16, label %rev_list_push.exit

16:                                               ; preds = %13
  %17 = getelementptr inbounds nuw i8, ptr %7, i64 48
  %18 = load i32, ptr %17, align 8, !tbaa !22
  %19 = add nsw i32 %18, 1
  store i32 %19, ptr %17, align 8, !tbaa !22
  br label %rev_list_push.exit

rev_list_push.exit:                               ; preds = %5, %9, %13, %16
  %20 = load ptr, ptr %6, align 8, !tbaa !13
  tail call fastcc void @mark_common(ptr noundef %20, ptr noundef nonnull %1, i32 noundef 1, i32 noundef 1)
  br label %21

21:                                               ; preds = %rev_list_push.exit, %2
  ret void
}